; Function Attrs: nounwind uwtable
define internal fastcc void @discard_stack_value(ptr noundef readonly captures(none) %0, ptr noundef nonnull captures(none) %1) unnamed_addr #0 {
  %3 = getelementptr inbounds nuw i8, ptr %0, i64 36
  %4 = load i32, ptr %3, align 4
  %cond = icmp eq i32 %4, 3
  br i1 %cond, label %5, label %set_string_field.exit

5:                                                ; preds = %2
  %6 = load ptr, ptr %1, align 8
  store ptr null, ptr %1, align 8
  %.not.i = icmp eq ptr %6, null
  br i1 %.not.i, label %set_string_field.exit, label %7

7:                                                ; preds = %5
  %8 = getelementptr inbounds nuw i8, ptr %0, i64 144
  %9 = load ptr, ptr %8, align 8
  %10 = load ptr, ptr %9, align 8
  %11 = icmp eq ptr %6, %10
  br i1 %11, label %set_string_field.exit, label %12

12:                                               ; preds = %7
  %13 = getelementptr inbounds nuw i8, ptr %0, i64 184
  %14 = load ptr, ptr %13, align 8
  %15 = icmp eq ptr %6, %14
  br i1 %15, label %set_string_field.exit, label %16

16:                                               ; preds = %12
  %17 = getelementptr inbounds nuw i8, ptr %0, i64 152
  %18 = load ptr, ptr %17, align 8
  %19 = icmp eq ptr %6, %18
  br i1 %19, label %set_string_field.exit, label %20

20:                                               ; preds = %16
  %21 = getelementptr inbounds nuw i8, ptr %0, i64 72
  br label %22

22:                                               ; preds = %27, %20
  %.0.in.i.i = phi ptr [ %21, %20 ], [ %.0.i.i, %27 ]
  %.0.i.i = load ptr, ptr %.0.in.i.i, align 8
  %.not.not.i.i = icmp eq ptr %.0.i.i, null
  br i1 %.not.not.i.i, label %guc_free.exit.i, label %23

23:                                               ; preds = %22
  %24 = getelementptr inbounds nuw i8, ptr %.0.i.i, i64 40
  %25 = load ptr, ptr %24, align 8
  %26 = icmp eq ptr %6, %25
  br i1 %26, label %set_string_field.exit, label %27

27:                                               ; preds = %23
  %28 = getelementptr inbounds nuw i8, ptr %.0.i.i, i64 56
  %29 = load ptr, ptr %28, align 8
  %30 = icmp eq ptr %6, %29
  br i1 %30, label %set_string_field.exit, label %22, !llvm.loop !33

guc_free.exit.i:                                  ; preds = %22
  tail call void @pfree(ptr noundef nonnull %6) #29
  br label %set_string_field.exit

set_string_field.exit:                            ; preds = %27, %23, %guc_free.exit.i, %16, %12, %7, %5, %2
  %31 = getelementptr inbounds nuw i8, ptr %1, i64 8
  %32 = load ptr, ptr %31, align 8
  store ptr null, ptr %31, align 8
  %.not.i5 = icmp eq ptr %32, null
  br i1 %.not.i5, label %set_extra_field.exit, label %33

33:                                               ; preds = %set_string_field.exit
  %34 = getelementptr inbounds nuw i8, ptr %0, i64 80
  %35 = load ptr, ptr %34, align 8
  %36 = icmp eq ptr %32, %35
  br i1 %36, label %set_extra_field.exit, label %37

37:                                               ; preds = %33
  %38 = load i32, ptr %3, align 4
  switch i32 %38, label %59 [
    i32 0, label %39
    i32 1, label %43
    i32 2, label %47
    i32 3, label %51
    i32 4, label %55
  ]

39:                                               ; preds = %37
  %40 = getelementptr inbounds nuw i8, ptr %0, i64 192
  %41 = load ptr, ptr %40, align 8
  %42 = icmp eq ptr %32, %41
  br i1 %42, label %set_extra_field.exit, label %59

43:                                               ; preds = %37
  %44 = getelementptr inbounds nuw i8, ptr %0, i64 200
  %45 = load ptr, ptr %44, align 8
  %46 = icmp eq ptr %32, %45
  br i1 %46, label %set_extra_field.exit, label %59

47:                                               ; preds = %37
  %48 = getelementptr inbounds nuw i8, ptr %0, i64 208
  %49 = load ptr, ptr %48, align 8
  %50 = icmp eq ptr %32, %49
  br i1 %50, label %set_extra_field.exit, label %59

51:                                               ; preds = %37
  %52 = getelementptr inbounds nuw i8, ptr %0, i64 192
  %53 = load ptr, ptr %52, align 8
  %54 = icmp eq ptr %32, %53
  br i1 %54, label %set_extra_field.exit, label %59

55:                                               ; preds = %37
  %56 = getelementptr inbounds nuw i8, ptr %0, i64 200
  %57 = load ptr, ptr %56, align 8
  %58 = icmp eq ptr %32, %57
  br i1 %58, label %set_extra_field.exit, label %59

59:                                               ; preds = %55, %51, %47, %43, %39, %37
  %60 = getelementptr inbounds nuw i8, ptr %0, i64 72
  br label %61

61:                                               ; preds = %66, %59
  %.0.in.i.i6 = phi ptr [ %60, %59 ], [ %.0.i.i7, %66 ]
  %.0.i.i7 = load ptr, ptr %.0.in.i.i6, align 8
  %.not.not.i.i8 = icmp eq ptr %.0.i.i7, null
  br i1 %.not.not.i.i8, label %guc_free.exit.i9, label %62

62:                                               ; preds = %61
  %63 = getelementptr inbounds nuw i8, ptr %.0.i.i7, i64 48
  %64 = load ptr, ptr %63, align 8
  %65 = icmp eq ptr %32, %64
  br i1 %65, label %set_extra_field.exit, label %66

66:                                               ; preds = %62
  %67 = getelementptr inbounds nuw i8, ptr %.0.i.i7, i64 64
  %68 = load ptr, ptr %67, align 8
  %69 = icmp eq ptr %32, %68
  br i1 %69, label %set_extra_field.exit, label %61, !llvm.loop !32

guc_free.exit.i9:                                 ; preds = %61
  tail call void @pfree(ptr noundef nonnull %32) #29
  br label %set_extra_field.exit

set_extra_field.exit:                             ; preds = %62, %66, %set_string_field.exit, %33, %39, %43, %47, %51, %55, %guc_free.exit.i9
  ret void
}